; ModuleID = '51/118.c'
source_filename = "51/118.c"
target datalayout = "e-m:e-p270:32:32-p271:32:32-p272:64:64-i64:64-f80:128-n8:16:32:64-S128"
target triple = "x86_64-pc-linux-gnu"

@.str = private unnamed_addr constant [3 x i8] c"%d\00", align 1
@.str.1 = private unnamed_addr constant [3 x i8] c"%s\00", align 1
@.str.2 = private unnamed_addr constant [3 x i8] c"NO\00", align 1
@.str.3 = private unnamed_addr constant [4 x i8] c"%d\0A\00", align 1
@.str.4 = private unnamed_addr constant [4 x i8] c"%s\0A\00", align 1

; Function Attrs: noinline nounwind uwtable
define dso_local i32 @main() #0 {
  %1 = alloca i32, align 4
  %2 = alloca i32, align 4
  %3 = alloca i32, align 4
  %4 = alloca i32, align 4
  %5 = alloca i32, align 4
  %6 = alloca [505 x i8], align 16
  %7 = alloca [500 x [5 x i8]], align 16
  %8 = alloca [500 x i32], align 16
  store i32 0, i32* %1, align 4
  store i32 0, i32* %5, align 4
  %9 = bitcast [500 x i32]* %8 to i8*
  call void @llvm.memset.p0i8.i64(i8* align 16 %9, i8 0, i64 2000, i1 false)
  %10 = call i32 (i8*, ...) @__isoc99_scanf(i8* getelementptr inbounds ([3 x i8], [3 x i8]* @.str, i64 0, i64 0), i32* %2)
  %11 = call i32 (i8*, ...) @__isoc99_scanf(i8* getelementptr inbounds ([3 x i8], [3 x i8]* @.str.1, i64 0, i64 0), [505 x i8]* %6)
  store i32 0, i32* %3, align 4
  br label %12

12:                                               ; preds = %44, %0
  %13 = load i32, i32* %3, align 4
  %14 = sext i32 %13 to i64
  %15 = getelementptr inbounds [505 x i8], [505 x i8]* %6, i64 0, i64 0
  %16 = call i64 @strlen(i8* %15) #4
  %17 = load i32, i32* %2, align 4
  %18 = sext i32 %17 to i64
  %19 = sub i64 %16, %18
  %20 = add i64 %19, 1
  %21 = icmp ult i64 %14, %20
  br i1 %21, label %22, label %47

22:                                               ; preds = %12
  store i32 0, i32* %4, align 4
  br label %23

23:                                               ; preds = %40, %22
  %24 = load i32, i32* %4, align 4
  %25 = load i32, i32* %2, align 4
  %26 = icmp slt i32 %24, %25
  br i1 %26, label %27, label %43

27:                                               ; preds = %23
  %28 = load i32, i32* %3, align 4
  %29 = load i32, i32* %4, align 4
  %30 = add nsw i32 %28, %29
  %31 = sext i32 %30 to i64
  %32 = getelementptr inbounds [505 x i8], [505 x i8]* %6, i64 0, i64 %31
  %33 = load i8, i8* %32, align 1
  %34 = load i32, i32* %3, align 4
  %35 = sext i32 %34 to i64
  %36 = getelementptr inbounds [500 x [5 x i8]], [500 x [5 x i8]]* %7, i64 0, i64 %35
  %37 = load i32, i32* %4, align 4
  %38 = sext i32 %37 to i64
  %39 = getelementptr inbounds [5 x i8], [5 x i8]* %36, i64 0, i64 %38
  store i8 %33, i8* %39, align 1
  br label %40

40:                                               ; preds = %27
  %41 = load i32, i32* %4, align 4
  %42 = add nsw i32 %41, 1
  store i32 %42, i32* %4, align 4
  br label %23

43:                                               ; preds = %23
  br label %44

44:                                               ; preds = %43
  %45 = load i32, i32* %3, align 4
  %46 = add nsw i32 %45, 1
  store i32 %46, i32* %3, align 4
  br label %12

47:                                               ; preds = %12
  store i32 0, i32* %3, align 4
  br label %48

48:                                               ; preds = %100, %47
  %49 = load i32, i32* %3, align 4
  %50 = sext i32 %49 to i64
  %51 = getelementptr inbounds [505 x i8], [505 x i8]* %6, i64 0, i64 0
  %52 = call i64 @strlen(i8* %51) #4
  %53 = load i32, i32* %2, align 4
  %54 = sext i32 %53 to i64
  %55 = sub i64 %52, %54
  %56 = add i64 %55, 1
  %57 = icmp ult i64 %50, %56
  br i1 %57, label %58, label %103

58:                                               ; preds = %48
  %59 = load i32, i32* %3, align 4
  store i32 %59, i32* %4, align 4
  br label %60

60:                                               ; preds = %96, %58
  %61 = load i32, i32* %4, align 4
  %62 = sext i32 %61 to i64
  %63 = getelementptr inbounds [505 x i8], [505 x i8]* %6, i64 0, i64 0
  %64 = call i64 @strlen(i8* %63) #4
  %65 = icmp ult i64 %62, %64
  br i1 %65, label %66, label %99

66:                                               ; preds = %60
  %67 = load i32, i32* %3, align 4
  %68 = sext i32 %67 to i64
  %69 = getelementptr inbounds [500 x [5 x i8]], [500 x [5 x i8]]* %7, i64 0, i64 %68
  %70 = getelementptr inbounds [5 x i8], [5 x i8]* %69, i64 0, i64 0
  %71 = load i32, i32* %4, align 4
  %72 = sext i32 %71 to i64
  %73 = getelementptr inbounds [500 x [5 x i8]], [500 x [5 x i8]]* %7, i64 0, i64 %72
  %74 = getelementptr inbounds [5 x i8], [5 x i8]* %73, i64 0, i64 0
  %75 = call i32 @strcmp(i8* %70, i8* %74) #4
  %76 = icmp eq i32 %75, 0
  br i1 %76, label %77, label %83

77:                                               ; preds = %66
  %78 = load i32, i32* %3, align 4
  %79 = sext i32 %78 to i64
  %80 = getelementptr inbounds [500 x i32], [500 x i32]* %8, i64 0, i64 %79
  %81 = load i32, i32* %80, align 4
  %82 = add nsw i32 %81, 1
  store i32 %82, i32* %80, align 4
  br label %83

83:                                               ; preds = %77, %66
  %84 = load i32, i32* %3, align 4
  %85 = sext i32 %84 to i64
  %86 = getelementptr inbounds [500 x i32], [500 x i32]* %8, i64 0, i64 %85
  %87 = load i32, i32* %86, align 4
  %88 = load i32, i32* %5, align 4
  %89 = icmp sgt i32 %87, %88
  br i1 %89, label %90, label %95

90:                                               ; preds = %83
  %91 = load i32, i32* %3, align 4
  %92 = sext i32 %91 to i64
  %93 = getelementptr inbounds [500 x i32], [500 x i32]* %8, i64 0, i64 %92
  %94 = load i32, i32* %93, align 4
  store i32 %94, i32* %5, align 4
  br label %95

95:                                               ; preds = %90, %83
  br label %96

96:                                               ; preds = %95
  %97 = load i32, i32* %4, align 4
  %98 = add nsw i32 %97, 1
  store i32 %98, i32* %4, align 4
  br label %60

99:                                               ; preds = %60
  br label %100

100:                                              ; preds = %99
  %101 = load i32, i32* %3, align 4
  %102 = add nsw i32 %101, 1
  store i32 %102, i32* %3, align 4
  br label %48

103:                                              ; preds = %48
  %104 = load i32, i32* %5, align 4
  %105 = icmp eq i32 %104, 1
  br i1 %105, label %106, label %108

106:                                              ; preds = %103
  %107 = call i32 (i8*, ...) @printf(i8* getelementptr inbounds ([3 x i8], [3 x i8]* @.str.2, i64 0, i64 0))
  br label %139

108:                                              ; preds = %103
  %109 = load i32, i32* %5, align 4
  %110 = call i32 (i8*, ...) @printf(i8* getelementptr inbounds ([4 x i8], [4 x i8]* @.str.3, i64 0, i64 0), i32 %109)
  store i32 0, i32* %3, align 4
  br label %111

111:                                              ; preds = %135, %108
  %112 = load i32, i32* %3, align 4
  %113 = sext i32 %112 to i64
  %114 = getelementptr inbounds [505 x i8], [505 x i8]* %6, i64 0, i64 0
  %115 = call i64 @strlen(i8* %114) #4
  %116 = load i32, i32* %2, align 4
  %117 = sext i32 %116 to i64
  %118 = sub i64 %115, %117
  %119 = add i64 %118, 1
  %120 = icmp ult i64 %113, %119
  br i1 %120, label %121, label %138

121:                                              ; preds = %111
  %122 = load i32, i32* %3, align 4
  %123 = sext i32 %122 to i64
  %124 = getelementptr inbounds [500 x i32], [500 x i32]* %8, i64 0, i64 %123
  %125 = load i32, i32* %124, align 4
  %126 = load i32, i32* %5, align 4
  %127 = icmp eq i32 %125, %126
  br i1 %127, label %128, label %134

128:                                              ; preds = %121
  %129 = load i32, i32* %3, align 4
  %130 = sext i32 %129 to i64
  %131 = getelementptr inbounds [500 x [5 x i8]], [500 x [5 x i8]]* %7, i64 0, i64 %130
  %132 = getelementptr inbounds [5 x i8], [5 x i8]* %131, i64 0, i64 0
  %133 = call i32 (i8*, ...) @printf(i8* getelementptr inbounds ([4 x i8], [4 x i8]* @.str.4, i64 0, i64 0), i8* %132)
  br label %134

134:                                              ; preds = %128, %121
  br label %135

135:                                              ; preds = %134
  %136 = load i32, i32* %3, align 4
  %137 = add nsw i32 %136, 1
  store i32 %137, i32* %3, align 4
  br label %111

138:                                              ; preds = %111
  br label %139

139:                                              ; preds = %138, %106
  ret i32 0
}

; Function Attrs: argmemonly nounwind willreturn
declare void @llvm.memset.p0i8.i64(i8* nocapture writeonly, i8, i64, i1 immarg) #1

declare dso_local i32 @__isoc99_scanf(i8*, ...) #2

; Function Attrs: nounwind readonly
declare dso_local i64 @strlen(i8*) #3

; Function Attrs: nounwind readonly
declare dso_local i32 @strcmp(i8*, i8*) #3

declare dso_local i32 @printf(i8*, ...) #2


!llvm.module.flags = !{!0}
!llvm.ident = !{!1}

!0 = !{i32 1, !"wchar_size", i32 4}
!1 = !{!"clang version 10.0.0-4ubuntu1 "}
